target datalayout = "e-m:e-p270:32:32-p271:32:32-p272:64:64-i64:64-i128:128-f80:128-n8:16:32:64-S128"
target triple = "x86_64-pc-linux-gnu"

%"class.folly::RegexMatchCache::ConsistencyReportMatcher" = type { ptr, %"class.std::unique_ptr.147" }
%"class.std::unique_ptr.147" = type { %"struct.std::__uniq_ptr_data.148" }
%"struct.std::__uniq_ptr_data.148" = type { %"class.std::__uniq_ptr_impl.149" }
%"class.std::__uniq_ptr_impl.149" = type { %"class.std::tuple.150" }
%"class.std::tuple.150" = type { %"struct.std::_Tuple_impl.151" }
%"struct.std::_Tuple_impl.151" = type { %"struct.std::_Head_base.154" }
%"struct.std::_Head_base.154" = type { ptr }
%"struct.folly::RegexMatchCache::ConsistencyReportMatcher::state" = type { %"class.std::unordered_map" }
%"class.std::unordered_map" = type { %"class.std::_Hashtable" }
%"class.std::_Hashtable" = type { ptr, i64, %"struct.std::__detail::_Hash_node_base", i64, %"struct.std::__detail::_Prime_rehash_policy", ptr }
%"struct.std::__detail::_Hash_node_base" = type { ptr }
%"struct.std::__detail::_Prime_rehash_policy" = type { float, i64 }

; Function Attrs: mustprogress nounwind uwtable
define linkonce_odr noundef nonnull align 8 dereferenceable(8) ptr @_ZNSt10_Head_baseILm0EPN5folly15RegexMatchCache24ConsistencyReportMatcher5stateELb0EE7_M_headERS5_(ptr noundef nonnull align 8 dereferenceable(8) %0) #0 comdat align 2 {
  %2 = alloca ptr, align 8
  store ptr %0, ptr %2, align 8, !tbaa !616
  %3 = load ptr, ptr %2, align 8, !tbaa !616
  %4 = getelementptr inbounds nuw %"struct.std::_Head_base.154", ptr %3, i32 0, i32 0
  ret ptr %4
}

; Function Attrs: mustprogress nounwind uwtable
define linkonce_odr noundef nonnull align 8 dereferenceable(8) ptr @_ZNSt11_Tuple_implILm0EJPN5folly15RegexMatchCache24ConsistencyReportMatcher5stateESt14default_deleteIS3_EEE7_M_headERS7_(ptr noundef nonnull align 8 dereferenceable(8) %0) #0 comdat align 2 {
  %2 = alloca ptr, align 8
  store ptr %0, ptr %2, align 8, !tbaa !612
  %3 = load ptr, ptr %2, align 8, !tbaa !612
  %4 = call noundef nonnull align 8 dereferenceable(8) ptr @_ZNSt10_Head_baseILm0EPN5folly15RegexMatchCache24ConsistencyReportMatcher5stateELb0EE7_M_headERS5_(ptr noundef nonnull align 8 dereferenceable(8) %3) #27
  ret ptr %4
}

; Function Attrs: mustprogress nounwind uwtable
define linkonce_odr void @_ZNSt10_Head_baseILm1ESt14default_deleteIN5folly15RegexMatchCache24ConsistencyReportMatcher5stateEELb1EEC2Ev(ptr noundef nonnull align 1 dereferenceable(1) %0) unnamed_addr #0 comdat align 2 {
  %2 = alloca ptr, align 8
  store ptr %0, ptr %2, align 8, !tbaa !620
  ret void
}

; Function Attrs: mustprogress nounwind uwtable
define linkonce_odr void @_ZNSt15__new_allocatorINSt8__detail10_Hash_nodeISt4pairIKN5folly18RegexMatchCacheKeyENS3_15RegexMatchCache11RegexObjectEELb0EEEEC2Ev(ptr noundef nonnull align 1 dereferenceable(1) %0) unnamed_addr #0 comdat align 2 {
  %2 = alloca ptr, align 8
  store ptr %0, ptr %2, align 8, !tbaa !604
  ret void
}

; Function Attrs: mustprogress nounwind uwtable
define linkonce_odr noundef nonnull align 8 dereferenceable(8) ptr @_ZSt12__get_helperILm0EPN5folly15RegexMatchCache24ConsistencyReportMatcher5stateEJSt14default_deleteIS3_EEERT0_RSt11_Tuple_implIXT_EJS7_DpT1_EE(ptr noundef nonnull align 8 dereferenceable(8) %0) #0 comdat {
  %2 = alloca ptr, align 8
  store ptr %0, ptr %2, align 8, !tbaa !612
  %3 = load ptr, ptr %2, align 8, !tbaa !612
  %4 = call noundef nonnull align 8 dereferenceable(8) ptr @_ZNSt11_Tuple_implILm0EJPN5folly15RegexMatchCache24ConsistencyReportMatcher5stateESt14default_deleteIS3_EEE7_M_headERS7_(ptr noundef nonnull align 8 dereferenceable(8) %3) #27
  ret ptr %4
}

; Function Attrs: mustprogress nounwind uwtable
define linkonce_odr void @_ZNSt10_Head_baseILm0EPN5folly15RegexMatchCache24ConsistencyReportMatcher5stateELb0EEC2Ev(ptr noundef nonnull align 8 dereferenceable(8) %0) unnamed_addr #0 comdat align 2 {
  %2 = alloca ptr, align 8
  store ptr %0, ptr %2, align 8, !tbaa !616
  %3 = load ptr, ptr %2, align 8
  %4 = getelementptr inbounds nuw %"struct.std::_Head_base.154", ptr %3, i32 0, i32 0
  store ptr null, ptr %4, align 8, !tbaa !618
  ret void
}

; Function Attrs: mustprogress uwtable
define linkonce_odr void @_ZNSt11_Tuple_implILm1EJSt14default_deleteIN5folly15RegexMatchCache24ConsistencyReportMatcher5stateEEEEC2Ev(ptr noundef nonnull align 1 dereferenceable(1) %0) unnamed_addr #1 comdat align 2 {
  %2 = alloca ptr, align 8
  store ptr %0, ptr %2, align 8, !tbaa !614
  %3 = load ptr, ptr %2, align 8
  call void @_ZNSt10_Head_baseILm1ESt14default_deleteIN5folly15RegexMatchCache24ConsistencyReportMatcher5stateEELb1EEC2Ev(ptr noundef nonnull align 1 dereferenceable(1) %3)
  ret void
}

; Function Attrs: mustprogress nounwind uwtable
define linkonce_odr void @_ZNSaINSt8__detail10_Hash_nodeISt4pairIKN5folly18RegexMatchCacheKeyENS2_15RegexMatchCache11RegexObjectEELb0EEEEC2Ev(ptr noundef nonnull align 1 dereferenceable(1) %0) unnamed_addr #0 comdat align 2 {
  %2 = alloca ptr, align 8
  store ptr %0, ptr %2, align 8, !tbaa !602
  %3 = load ptr, ptr %2, align 8
  call void @_ZNSt15__new_allocatorINSt8__detail10_Hash_nodeISt4pairIKN5folly18RegexMatchCacheKeyENS3_15RegexMatchCache11RegexObjectEELb0EEEEC2Ev(ptr noundef nonnull align 1 dereferenceable(1) %3) #27
  ret void
}

; Function Attrs: mustprogress nounwind uwtable
define linkonce_odr void @_ZNSt8__detail21_Hashtable_ebo_helperILi1ESt4hashIN5folly18RegexMatchCacheKeyEELb1EEC2Ev(ptr noundef nonnull align 1 dereferenceable(1) %0) unnamed_addr #0 comdat align 2 {
  %2 = alloca ptr, align 8
  store ptr %0, ptr %2, align 8, !tbaa !598
  ret void
}

; Function Attrs: mustprogress nounwind uwtable
define linkonce_odr noundef nonnull align 8 dereferenceable(8) ptr @_ZSt3getILm0EJPN5folly15RegexMatchCache24ConsistencyReportMatcher5stateESt14default_deleteIS3_EEERNSt13tuple_elementIXT_ESt5tupleIJDpT0_EEE4typeERSB_(ptr noundef nonnull align 8 dereferenceable(8) %0) #0 comdat {
  %2 = alloca ptr, align 8
  store ptr %0, ptr %2, align 8, !tbaa !610
  %3 = load ptr, ptr %2, align 8, !tbaa !610
  %4 = call noundef nonnull align 8 dereferenceable(8) ptr @_ZSt12__get_helperILm0EPN5folly15RegexMatchCache24ConsistencyReportMatcher5stateEJSt14default_deleteIS3_EEERT0_RSt11_Tuple_implIXT_EJS7_DpT1_EE(ptr noundef nonnull align 8 dereferenceable(8) %3) #27
  ret ptr %4
}

; Function Attrs: mustprogress uwtable
define linkonce_odr void @_ZNSt11_Tuple_implILm0EJPN5folly15RegexMatchCache24ConsistencyReportMatcher5stateESt14default_deleteIS3_EEEC2Ev(ptr noundef nonnull align 8 dereferenceable(8) %0) unnamed_addr #1 comdat align 2 {
  %2 = alloca ptr, align 8
  store ptr %0, ptr %2, align 8, !tbaa !612
  %3 = load ptr, ptr %2, align 8
  call void @_ZNSt11_Tuple_implILm1EJSt14default_deleteIN5folly15RegexMatchCache24ConsistencyReportMatcher5stateEEEEC2Ev(ptr noundef nonnull align 1 dereferenceable(1) %3)
  call void @_ZNSt10_Head_baseILm0EPN5folly15RegexMatchCache24ConsistencyReportMatcher5stateELb0EEC2Ev(ptr noundef nonnull align 8 dereferenceable(8) %3)
  ret void
}

; Function Attrs: mustprogress nounwind uwtable
define linkonce_odr void @_ZNSt8__detail21_Hashtable_ebo_helperILi0ESaINS_10_Hash_nodeISt4pairIKN5folly18RegexMatchCacheKeyENS3_15RegexMatchCache11RegexObjectEELb0EEEELb1EEC2Ev(ptr noundef nonnull align 1 dereferenceable(1) %0) unnamed_addr #0 comdat align 2 {
  %2 = alloca ptr, align 8
  store ptr %0, ptr %2, align 8, !tbaa !600
  %3 = load ptr, ptr %2, align 8
  call void @_ZNSaINSt8__detail10_Hash_nodeISt4pairIKN5folly18RegexMatchCacheKeyENS2_15RegexMatchCache11RegexObjectEELb0EEEEC2Ev(ptr noundef nonnull align 1 dereferenceable(1) %3) #27
  ret void
}

; Function Attrs: mustprogress nounwind uwtable
define linkonce_odr void @_ZNSt8__detail21_Hashtable_ebo_helperILi0ESt8equal_toIN5folly18RegexMatchCacheKeyEELb1EEC2Ev(ptr noundef nonnull align 1 dereferenceable(1) %0) unnamed_addr #0 comdat align 2 {
  %2 = alloca ptr, align 8
  store ptr %0, ptr %2, align 8, !tbaa !596
  ret void
}

; Function Attrs: mustprogress nounwind uwtable
define linkonce_odr void @_ZNSt8__detail15_Hash_code_baseIN5folly18RegexMatchCacheKeyESt4pairIKS2_NS1_15RegexMatchCache11RegexObjectEENS_10_Select1stESt4hashIS2_ENS_18_Mod_range_hashingENS_20_Default_ranged_hashELb0EEC2Ev(ptr noundef nonnull align 1 dereferenceable(1) %0) unnamed_addr #0 comdat align 2 {
  %2 = alloca ptr, align 8
  store ptr %0, ptr %2, align 8, !tbaa !594
  %3 = load ptr, ptr %2, align 8
  call void @_ZNSt8__detail21_Hashtable_ebo_helperILi1ESt4hashIN5folly18RegexMatchCacheKeyEELb1EEC2Ev(ptr noundef nonnull align 1 dereferenceable(1) %3) #27
  ret void
}

; Function Attrs: mustprogress nounwind uwtable
define linkonce_odr noundef nonnull align 8 dereferenceable(8) ptr @_ZNSt15__uniq_ptr_implIN5folly15RegexMatchCache24ConsistencyReportMatcher5stateESt14default_deleteIS3_EE6_M_ptrEv(ptr noundef nonnull align 8 dereferenceable(8) %0) #0 comdat align 2 {
  %2 = alloca ptr, align 8
  store ptr %0, ptr %2, align 8, !tbaa !608
  %3 = load ptr, ptr %2, align 8
  %4 = getelementptr inbounds nuw %"class.std::__uniq_ptr_impl.149", ptr %3, i32 0, i32 0
  %5 = call noundef nonnull align 8 dereferenceable(8) ptr @_ZSt3getILm0EJPN5folly15RegexMatchCache24ConsistencyReportMatcher5stateESt14default_deleteIS3_EEERNSt13tuple_elementIXT_ESt5tupleIJDpT0_EEE4typeERSB_(ptr noundef nonnull align 8 dereferenceable(8) %4) #27
  ret ptr %5
}

; Function Attrs: mustprogress nounwind uwtable
define linkonce_odr void @_ZNSt5tupleIJPN5folly15RegexMatchCache24ConsistencyReportMatcher5stateESt14default_deleteIS3_EEEC2ILb1ETnNSt9enable_ifIXclsr17_TupleConstraintsIXT_ES4_S6_EE37__is_implicitly_default_constructibleEEbE4typeELb1EEEv(ptr noundef nonnull align 8 dereferenceable(8) %0) unnamed_addr #0 comdat align 2 personality ptr @__gxx_personality_v0 {
  %2 = alloca ptr, align 8
  store ptr %0, ptr %2, align 8, !tbaa !610
  %3 = load ptr, ptr %2, align 8
  invoke void @_ZNSt11_Tuple_implILm0EJPN5folly15RegexMatchCache24ConsistencyReportMatcher5stateESt14default_deleteIS3_EEEC2Ev(ptr noundef nonnull align 8 dereferenceable(8) %3)
          to label %4 unwind label %5

4:                                                ; preds = %1
  ret void

5:                                                ; preds = %1
  %6 = landingpad { ptr, i32 }
          catch ptr null
  %7 = extractvalue { ptr, i32 } %6, 0
  call void @__clang_call_terminate(ptr %7) #37
  unreachable
}

; Function Attrs: mustprogress nounwind uwtable
define linkonce_odr void @_ZNSt8__detail20_Prime_rehash_policyC2Ef(ptr noundef nonnull align 8 dereferenceable(16) %0, float noundef %1) unnamed_addr #0 comdat align 2 {
  %3 = alloca ptr, align 8
  %4 = alloca float, align 4
  store ptr %0, ptr %3, align 8, !tbaa !589
  store float %1, ptr %4, align 4, !tbaa !591
  %5 = load ptr, ptr %3, align 8
  %6 = getelementptr inbounds nuw %"struct.std::__detail::_Prime_rehash_policy", ptr %5, i32 0, i32 0
  %7 = load float, ptr %4, align 4, !tbaa !591
  store float %7, ptr %6, align 8, !tbaa !592
  %8 = getelementptr inbounds nuw %"struct.std::__detail::_Prime_rehash_policy", ptr %5, i32 0, i32 1
  store i64 0, ptr %8, align 8, !tbaa !593
  ret void
}

; Function Attrs: mustprogress nounwind uwtable
define linkonce_odr void @_ZNSt8__detail15_Hash_node_baseC2Ev(ptr noundef nonnull align 8 dereferenceable(8) %0) unnamed_addr #0 comdat align 2 {
  %2 = alloca ptr, align 8
  store ptr %0, ptr %2, align 8, !tbaa !587
  %3 = load ptr, ptr %2, align 8
  %4 = getelementptr inbounds nuw %"struct.std::__detail::_Hash_node_base", ptr %3, i32 0, i32 0
  store ptr null, ptr %4, align 8, !tbaa !588
  ret void
}

; Function Attrs: mustprogress nounwind uwtable
define linkonce_odr void @_ZNSt8__detail16_Hashtable_allocISaINS_10_Hash_nodeISt4pairIKN5folly18RegexMatchCacheKeyENS3_15RegexMatchCache11RegexObjectEELb0EEEEEC2Ev(ptr noundef nonnull align 1 dereferenceable(1) %0) unnamed_addr #0 comdat align 2 {
  %2 = alloca ptr, align 8
  store ptr %0, ptr %2, align 8, !tbaa !585
  %3 = load ptr, ptr %2, align 8
  call void @_ZNSt8__detail21_Hashtable_ebo_helperILi0ESaINS_10_Hash_nodeISt4pairIKN5folly18RegexMatchCacheKeyENS3_15RegexMatchCache11RegexObjectEELb0EEEELb1EEC2Ev(ptr noundef nonnull align 1 dereferenceable(1) %3) #27
  ret void
}

; Function Attrs: mustprogress nounwind uwtable
define linkonce_odr void @_ZNSt8__detail15_Hashtable_baseIN5folly18RegexMatchCacheKeyESt4pairIKS2_NS1_15RegexMatchCache11RegexObjectEENS_10_Select1stESt8equal_toIS2_ESt4hashIS2_ENS_18_Mod_range_hashingENS_20_Default_ranged_hashENS_17_Hashtable_traitsILb0ELb0ELb1EEEEC2Ev(ptr noundef nonnull align 1 dereferenceable(1) %0) unnamed_addr #0 comdat align 2 {
  %2 = alloca ptr, align 8
  store ptr %0, ptr %2, align 8, !tbaa !583
  %3 = load ptr, ptr %2, align 8
  call void @_ZNSt8__detail15_Hash_code_baseIN5folly18RegexMatchCacheKeyESt4pairIKS2_NS1_15RegexMatchCache11RegexObjectEENS_10_Select1stESt4hashIS2_ENS_18_Mod_range_hashingENS_20_Default_ranged_hashELb0EEC2Ev(ptr noundef nonnull align 1 dereferenceable(1) %3) #27
  call void @_ZNSt8__detail21_Hashtable_ebo_helperILi0ESt8equal_toIN5folly18RegexMatchCacheKeyEELb1EEC2Ev(ptr noundef nonnull align 1 dereferenceable(1) %3) #27
  ret void
}

; Function Attrs: mustprogress nounwind uwtable
define linkonce_odr void @_ZNSt15__uniq_ptr_implIN5folly15RegexMatchCache24ConsistencyReportMatcher5stateESt14default_deleteIS3_EEC2EPS3_(ptr noundef nonnull align 8 dereferenceable(8) %0, ptr noundef %1) unnamed_addr #0 comdat align 2 {
  %3 = alloca ptr, align 8
  %4 = alloca ptr, align 8
  store ptr %0, ptr %3, align 8, !tbaa !608
  store ptr %1, ptr %4, align 8, !tbaa !565
  %5 = load ptr, ptr %3, align 8
  %6 = getelementptr inbounds nuw %"class.std::__uniq_ptr_impl.149", ptr %5, i32 0, i32 0
  call void @_ZNSt5tupleIJPN5folly15RegexMatchCache24ConsistencyReportMatcher5stateESt14default_deleteIS3_EEEC2ILb1ETnNSt9enable_ifIXclsr17_TupleConstraintsIXT_ES4_S6_EE37__is_implicitly_default_constructibleEEbE4typeELb1EEEv(ptr noundef nonnull align 8 dereferenceable(8) %6) #27
  %7 = load ptr, ptr %4, align 8, !tbaa !565
  %8 = call noundef nonnull align 8 dereferenceable(8) ptr @_ZNSt15__uniq_ptr_implIN5folly15RegexMatchCache24ConsistencyReportMatcher5stateESt14default_deleteIS3_EE6_M_ptrEv(ptr noundef nonnull align 8 dereferenceable(8) %5) #27
  store ptr %7, ptr %8, align 8, !tbaa !565
  ret void
}

; Function Attrs: mustprogress nounwind uwtable
define linkonce_odr void @_ZNSt10_HashtableIN5folly18RegexMatchCacheKeyESt4pairIKS1_NS0_15RegexMatchCache11RegexObjectEESaIS6_ENSt8__detail10_Select1stESt8equal_toIS1_ESt4hashIS1_ENS8_18_Mod_range_hashingENS8_20_Default_ranged_hashENS8_20_Prime_rehash_policyENS8_17_Hashtable_traitsILb0ELb0ELb1EEEEC2Ev(ptr noundef nonnull align 8 dereferenceable(56) %0) unnamed_addr #0 comdat align 2 {
  %2 = alloca ptr, align 8
  store ptr %0, ptr %2, align 8, !tbaa !571
  %3 = load ptr, ptr %2, align 8
  call void @_ZNSt8__detail15_Hashtable_baseIN5folly18RegexMatchCacheKeyESt4pairIKS2_NS1_15RegexMatchCache11RegexObjectEENS_10_Select1stESt8equal_toIS2_ESt4hashIS2_ENS_18_Mod_range_hashingENS_20_Default_ranged_hashENS_17_Hashtable_traitsILb0ELb0ELb1EEEEC2Ev(ptr noundef nonnull align 1 dereferenceable(1) %3) #27
  call void @_ZNSt8__detail16_Hashtable_allocISaINS_10_Hash_nodeISt4pairIKN5folly18RegexMatchCacheKeyENS3_15RegexMatchCache11RegexObjectEELb0EEEEEC2Ev(ptr noundef nonnull align 1 dereferenceable(1) %3) #27
  %4 = getelementptr inbounds nuw %"class.std::_Hashtable", ptr %3, i32 0, i32 0
  %5 = getelementptr inbounds nuw %"class.std::_Hashtable", ptr %3, i32 0, i32 5
  store ptr %5, ptr %4, align 8, !tbaa !573
  %6 = getelementptr inbounds nuw %"class.std::_Hashtable", ptr %3, i32 0, i32 1
  store i64 1, ptr %6, align 8, !tbaa !580
  %7 = getelementptr inbounds nuw %"class.std::_Hashtable", ptr %3, i32 0, i32 2
  call void @_ZNSt8__detail15_Hash_node_baseC2Ev(ptr noundef nonnull align 8 dereferenceable(8) %7) #27
  %8 = getelementptr inbounds nuw %"class.std::_Hashtable", ptr %3, i32 0, i32 3
  store i64 0, ptr %8, align 8, !tbaa !581
  %9 = getelementptr inbounds nuw %"class.std::_Hashtable", ptr %3, i32 0, i32 4
  call void @_ZNSt8__detail20_Prime_rehash_policyC2Ef(ptr noundef nonnull align 8 dereferenceable(16) %9, float noundef 1.000000e+00) #27
  %10 = getelementptr inbounds nuw %"class.std::_Hashtable", ptr %3, i32 0, i32 5
  store ptr null, ptr %10, align 8, !tbaa !582
  ret void
}

; Function Attrs: noinline noreturn nounwind uwtable
define linkonce_odr hidden void @__clang_call_terminate(ptr noundef %0) #2 comdat {
  %2 = call ptr @__cxa_begin_catch(ptr %0) #27
  call void @_ZSt9terminatev() #37
  unreachable
}

; Function Attrs: inlinehint mustprogress uwtable
define linkonce_odr void @_ZNSt15__uniq_ptr_dataIN5folly15RegexMatchCache24ConsistencyReportMatcher5stateESt14default_deleteIS3_ELb1ELb1EECI2St15__uniq_ptr_implIS3_S5_EEPS3_(ptr noundef nonnull align 8 dereferenceable(8) %0, ptr noundef %1) unnamed_addr #9 comdat align 2 {
  %3 = alloca ptr, align 8
  %4 = alloca ptr, align 8
  store ptr %0, ptr %3, align 8, !tbaa !606
  store ptr %1, ptr %4, align 8, !tbaa !565
  %5 = load ptr, ptr %3, align 8
  %6 = load ptr, ptr %4, align 8, !tbaa !565
  call void @_ZNSt15__uniq_ptr_implIN5folly15RegexMatchCache24ConsistencyReportMatcher5stateESt14default_deleteIS3_EEC2EPS3_(ptr noundef nonnull align 8 dereferenceable(8) %5, ptr noundef %6)
  ret void
}

; Function Attrs: mustprogress nounwind uwtable
define linkonce_odr void @_ZNSt13unordered_mapIN5folly18RegexMatchCacheKeyENS0_15RegexMatchCache11RegexObjectESt4hashIS1_ESt8equal_toIS1_ESaISt4pairIKS1_S3_EEEC2Ev(ptr noundef nonnull align 8 dereferenceable(56) %0) unnamed_addr #0 comdat align 2 {
  %2 = alloca ptr, align 8
  store ptr %0, ptr %2, align 8, !tbaa !569
  %3 = load ptr, ptr %2, align 8
  %4 = getelementptr inbounds nuw %"class.std::unordered_map", ptr %3, i32 0, i32 0
  call void @_ZNSt10_HashtableIN5folly18RegexMatchCacheKeyESt4pairIKS1_NS0_15RegexMatchCache11RegexObjectEESaIS6_ENSt8__detail10_Select1stESt8equal_toIS1_ESt4hashIS1_ENS8_18_Mod_range_hashingENS8_20_Default_ranged_hashENS8_20_Prime_rehash_policyENS8_17_Hashtable_traitsILb0ELb0ELb1EEEEC2Ev(ptr noundef nonnull align 8 dereferenceable(56) %4) #27
  ret void
}

; Function Attrs: mustprogress nounwind uwtable
define linkonce_odr void @_ZNSt10unique_ptrIN5folly15RegexMatchCache24ConsistencyReportMatcher5stateESt14default_deleteIS3_EEC2IS5_vEEPS3_(ptr noundef nonnull align 8 dereferenceable(8) %0, ptr noundef %1) unnamed_addr #0 comdat align 2 personality ptr @__gxx_personality_v0 {
  %3 = alloca ptr, align 8
  %4 = alloca ptr, align 8
  store ptr %0, ptr %3, align 8, !tbaa !567
  store ptr %1, ptr %4, align 8, !tbaa !565
  %5 = load ptr, ptr %3, align 8
  %6 = getelementptr inbounds nuw %"class.std::unique_ptr.147", ptr %5, i32 0, i32 0
  %7 = load ptr, ptr %4, align 8, !tbaa !565
  invoke void @_ZNSt15__uniq_ptr_dataIN5folly15RegexMatchCache24ConsistencyReportMatcher5stateESt14default_deleteIS3_ELb1ELb1EECI2St15__uniq_ptr_implIS3_S5_EEPS3_(ptr noundef nonnull align 8 dereferenceable(8) %6, ptr noundef %7)
          to label %8 unwind label %9

8:                                                ; preds = %2
  ret void

9:                                                ; preds = %2
  %10 = landingpad { ptr, i32 }
          catch ptr null
  %11 = extractvalue { ptr, i32 } %10, 0
  call void @__clang_call_terminate(ptr %11) #37
  unreachable
}

; Function Attrs: inlinehint mustprogress nounwind uwtable
define linkonce_odr void @_ZN5folly15RegexMatchCache24ConsistencyReportMatcher5stateC2Ev(ptr noundef nonnull align 8 dereferenceable(56) %0) unnamed_addr #6 comdat align 2 {
  %2 = alloca ptr, align 8
  store ptr %0, ptr %2, align 8, !tbaa !565
  %3 = load ptr, ptr %2, align 8
  %4 = getelementptr inbounds nuw %"struct.folly::RegexMatchCache::ConsistencyReportMatcher::state", ptr %3, i32 0, i32 0
  call void @_ZNSt13unordered_mapIN5folly18RegexMatchCacheKeyENS0_15RegexMatchCache11RegexObjectESt4hashIS1_ESt8equal_toIS1_ESaISt4pairIKS1_S3_EEEC2Ev(ptr noundef nonnull align 8 dereferenceable(56) %4) #27
  ret void
}

; Function Attrs: inlinehint mustprogress uwtable
define linkonce_odr void @_ZSt11make_uniqueIN5folly15RegexMatchCache24ConsistencyReportMatcher5stateEJEENSt8__detail9_MakeUniqIT_E15__single_objectEDpOT0_(ptr dead_on_unwind noalias writable sret(%"class.std::unique_ptr.147") align 8 %0) #9 comdat {
  %2 = alloca ptr, align 8
  store ptr %0, ptr %2, align 8
  %3 = call noalias noundef nonnull ptr @_Znwm(i64 noundef 56) #41
  call void @llvm.memset.p0.i64(ptr align 16 %3, i8 0, i64 56, i1 false)
  call void @_ZN5folly15RegexMatchCache24ConsistencyReportMatcher5stateC2Ev(ptr noundef nonnull align 8 dereferenceable(56) %3) #27
  call void @_ZNSt10unique_ptrIN5folly15RegexMatchCache24ConsistencyReportMatcher5stateESt14default_deleteIS3_EEC2IS5_vEEPS3_(ptr noundef nonnull align 8 dereferenceable(8) %0, ptr noundef %3) #27
  ret void
}

; Function Attrs: mustprogress uwtable
define void @_ZN5folly15RegexMatchCache24ConsistencyReportMatcherC2Ev(ptr noundef nonnull align 8 dereferenceable(16) %0) unnamed_addr #1 align 2 {
  %2 = alloca ptr, align 8
  store ptr %0, ptr %2, align 8, !tbaa !7
  %3 = load ptr, ptr %2, align 8
  store ptr getelementptr inbounds inrange(-16, 24) ({ [5 x ptr] }, ptr @_ZTVN5folly15RegexMatchCache24ConsistencyReportMatcherE, i32 0, i32 0, i32 2), ptr %3, align 8, !tbaa !16
  %4 = getelementptr inbounds nuw %"class.folly::RegexMatchCache::ConsistencyReportMatcher", ptr %3, i32 0, i32 1
  call void @_ZSt11make_uniqueIN5folly15RegexMatchCache24ConsistencyReportMatcher5stateEJEENSt8__detail9_MakeUniqIT_E15__single_objectEDpOT0_(ptr dead_on_unwind writable sret(%"class.std::unique_ptr.147") align 8 %4)
  ret void
}