; Function Attrs: mustprogress uwtable
define void @_ZN5folly15RegexMatchCache24ConsistencyReportMatcherC2Ev(ptr noundef nonnull writeonly align 8 captures(none) dereferenceable(16) initializes((0, 16)) %0) unnamed_addr #1 align 2 personality ptr @__gxx_personality_v0 {
  store ptr getelementptr inbounds nuw inrange(-16, 24) (i8, ptr @_ZTVN5folly15RegexMatchCache24ConsistencyReportMatcherE, i64 16), ptr %0, align 8, !tbaa !12
  %2 = getelementptr inbounds nuw i8, ptr %0, i64 8
  tail call void @llvm.experimental.noalias.scope.decl(metadata !216)
  %3 = tail call noalias noundef nonnull dereferenceable(56) ptr @_Znwm(i64 noundef 56) #43, !noalias !216
  %4 = getelementptr inbounds nuw i8, ptr %3, i64 32
  tail call void @llvm.memset.p0.i64(ptr noundef nonnull align 16 dereferenceable(56) %4, i8 0, i64 16, i1 false), !noalias !216
  %5 = getelementptr inbounds nuw i8, ptr %3, i64 48
  store ptr %5, ptr %3, align 8, !tbaa !219, !noalias !216
  %6 = getelementptr inbounds nuw i8, ptr %3, i64 8
  store i64 1, ptr %6, align 8, !tbaa !226, !noalias !216
  %7 = getelementptr inbounds nuw i8, ptr %3, i64 16
  tail call void @llvm.memset.p0.i64(ptr noundef nonnull align 8 dereferenceable(16) %7, i8 0, i64 16, i1 false), !noalias !216
  store float 1.000000e+00, ptr %4, align 8, !tbaa !227, !noalias !216
  %8 = getelementptr inbounds nuw i8, ptr %3, i64 40
  tail call void @llvm.memset.p0.i64(ptr noundef nonnull align 8 dereferenceable(16) %8, i8 0, i64 16, i1 false), !noalias !216
  store ptr %3, ptr %2, align 8, !tbaa !7, !alias.scope !216
  ret void
}